target datalayout = "e-m:e-p270:32:32-p271:32:32-p272:64:64-i64:64-i128:128-f80:128-n8:16:32:64-S128"
target triple = "x86_64-pc-linux-gnu"

%struct.pdf_array = type { ptr, ptr }
%struct.pdf_array_node = type { ptr, i64, i32, ptr, ptr }

; Function Attrs: nounwind uwtable
define void @pdf_free_array(ptr noundef %0) #0 {
  %2 = alloca ptr, align 8
  %3 = alloca ptr, align 8
  %4 = alloca ptr, align 8
  store ptr %0, ptr %2, align 8
  %5 = load ptr, ptr %2, align 8
  %6 = icmp ne ptr %5, null
  br i1 %6, label %8, label %7

7:                                                ; preds = %1
  br label %46

8:                                                ; preds = %1
  %9 = load ptr, ptr %2, align 8
  %10 = getelementptr inbounds %struct.pdf_array, ptr %9, i32 0, i32 0
  %11 = load ptr, ptr %10, align 8
  store ptr %11, ptr %3, align 8
  br label %12

12:                                               ; preds = %38, %8
  %13 = load ptr, ptr %3, align 8
  %14 = icmp ne ptr %13, null
  br i1 %14, label %15, label %44

15:                                               ; preds = %12
  %16 = load ptr, ptr %3, align 8
  %17 = getelementptr inbounds %struct.pdf_array_node, ptr %16, i32 0, i32 2
  %18 = load i32, ptr %17, align 8
  %19 = icmp eq i32 %18, 2
  br i1 %19, label %20, label %24

20:                                               ; preds = %15
  %21 = load ptr, ptr %3, align 8
  %22 = getelementptr inbounds %struct.pdf_array_node, ptr %21, i32 0, i32 0
  %23 = load ptr, ptr %22, align 8
  call void @pdf_free_array(ptr noundef %23)
  br label %38

24:                                               ; preds = %15
  %25 = load ptr, ptr %3, align 8
  %26 = getelementptr inbounds %struct.pdf_array_node, ptr %25, i32 0, i32 2
  %27 = load i32, ptr %26, align 8
  %28 = icmp eq i32 %27, 3
  br i1 %28, label %29, label %33

29:                                               ; preds = %24
  %30 = load ptr, ptr %3, align 8
  %31 = getelementptr inbounds %struct.pdf_array_node, ptr %30, i32 0, i32 0
  %32 = load ptr, ptr %31, align 8
  call void @pdf_free_dict(ptr noundef %32)
  br label %37

33:                                               ; preds = %24
  %34 = load ptr, ptr %3, align 8
  %35 = getelementptr inbounds %struct.pdf_array_node, ptr %34, i32 0, i32 0
  %36 = load ptr, ptr %35, align 8
  call void @free(ptr noundef %36) #7
  br label %37

37:                                               ; preds = %33, %29
  br label %38

38:                                               ; preds = %37, %20
  %39 = load ptr, ptr %3, align 8
  %40 = getelementptr inbounds %struct.pdf_array_node, ptr %39, i32 0, i32 4
  %41 = load ptr, ptr %40, align 8
  store ptr %41, ptr %4, align 8
  %42 = load ptr, ptr %3, align 8
  call void @free(ptr noundef %42) #7
  %43 = load ptr, ptr %4, align 8
  store ptr %43, ptr %3, align 8
  br label %12

44:                                               ; preds = %12
  %45 = load ptr, ptr %2, align 8
  call void @free(ptr noundef %45) #7
  br label %46

46:                                               ; preds = %44, %7
  ret void
}