; Function Attrs: nounwind uwtable
define void @pdf_free_array(ptr noundef %0) local_unnamed_addr #0 {
  %.not = icmp eq ptr %0, null
  br i1 %.not, label %13, label %2

2:                                                ; preds = %1
  %3 = load ptr, ptr %0, align 8
  %.not1415 = icmp eq ptr %3, null
  br i1 %.not1415, label %._crit_edge, label %.lr.ph

.lr.ph:                                           ; preds = %2, %10
  %.016 = phi ptr [ %12, %10 ], [ %3, %2 ]
  %4 = getelementptr inbounds i8, ptr %.016, i64 16
  %5 = load i32, ptr %4, align 8
  %6 = load ptr, ptr %.016, align 8
  switch i32 %5, label %9 [
    i32 2, label %7
    i32 3, label %8
  ]

7:                                                ; preds = %.lr.ph
  tail call void @pdf_free_array(ptr noundef %6)
  br label %10

8:                                                ; preds = %.lr.ph
  tail call void @pdf_free_dict(ptr noundef %6)
  br label %10

9:                                                ; preds = %.lr.ph
  tail call void @free(ptr noundef %6) #14
  br label %10

10:                                               ; preds = %8, %9, %7
  %11 = getelementptr inbounds i8, ptr %.016, i64 32
  %12 = load ptr, ptr %11, align 8
  tail call void @free(ptr noundef nonnull %.016) #14
  %.not14 = icmp eq ptr %12, null
  br i1 %.not14, label %._crit_edge, label %.lr.ph

._crit_edge:                                      ; preds = %10, %2
  tail call void @free(ptr noundef %0) #14
  br label %13

13:                                               ; preds = %1, %._crit_edge
  ret void
}